target datalayout = "e-m:e-p270:32:32-p271:32:32-p272:64:64-i64:64-i128:128-f80:128-n8:16:32:64-S128"
target triple = "x86_64-pc-linux-gnu"

%struct.PBE2PARAM_st = type { ptr, ptr }
%struct.PBKDF2PARAM_st = type { ptr, ptr, ptr, ptr }
%struct.asn1_type_st = type { i32, %union.anon.0 }
%union.anon.0 = type { ptr }
%struct.asn1_string_st = type { i32, i32, ptr, i64 }
%struct.X509_algor_st = type { ptr, ptr }
%struct.PBEPARAM_st = type { ptr, ptr }

; Function Attrs: nounwind uwtable
define internal i32 @alg_get(ptr noundef %0, ptr noundef %1, ptr noundef %2, ptr noundef %3, ptr noundef %4) #0 {
  %6 = alloca ptr, align 8
  %7 = alloca ptr, align 8
  %8 = alloca ptr, align 8
  %9 = alloca ptr, align 8
  %10 = alloca ptr, align 8
  %11 = alloca i32, align 4
  %12 = alloca i32, align 4
  %13 = alloca i32, align 4
  %14 = alloca i32, align 4
  %15 = alloca i32, align 4
  %16 = alloca ptr, align 8
  %17 = alloca ptr, align 8
  %18 = alloca ptr, align 8
  %19 = alloca ptr, align 8
  %20 = alloca ptr, align 8
  store ptr %0, ptr %6, align 8, !tbaa !46
  store ptr %1, ptr %7, align 8, !tbaa !47
  store ptr %2, ptr %8, align 8, !tbaa !47
  store ptr %3, ptr %9, align 8, !tbaa !47
  store ptr %4, ptr %10, align 8, !tbaa !47
  call void @llvm.lifetime.start.p0(i64 4, ptr %11) #4
  store i32 0, ptr %11, align 4, !tbaa !19
  call void @llvm.lifetime.start.p0(i64 4, ptr %12) #4
  call void @llvm.lifetime.start.p0(i64 4, ptr %13) #4
  call void @llvm.lifetime.start.p0(i64 4, ptr %14) #4
  call void @llvm.lifetime.start.p0(i64 4, ptr %15) #4
  call void @llvm.lifetime.start.p0(i64 8, ptr %16) #4
  call void @llvm.lifetime.start.p0(i64 8, ptr %17) #4
  call void @llvm.lifetime.start.p0(i64 8, ptr %18) #4
  store ptr null, ptr %18, align 8, !tbaa !49
  call void @llvm.lifetime.start.p0(i64 8, ptr %19) #4
  store ptr null, ptr %19, align 8, !tbaa !51
  call void @llvm.lifetime.start.p0(i64 8, ptr %20) #4
  store ptr null, ptr %20, align 8, !tbaa !53
  %21 = load ptr, ptr %6, align 8, !tbaa !46
  call void @X509_ALGOR_get0(ptr noundef %16, ptr noundef %13, ptr noundef %17, ptr noundef %21)
  %22 = load ptr, ptr %16, align 8, !tbaa !55
  %23 = call i32 @OBJ_obj2nid(ptr noundef %22)
  store i32 %23, ptr %12, align 4, !tbaa !19
  %24 = load i32, ptr %12, align 4, !tbaa !19
  switch i32 %24, label %94 [
    i32 161, label %25
  ]

25:                                               ; preds = %5
  %26 = load i32, ptr %13, align 4, !tbaa !19
  %27 = icmp eq i32 %26, 16
  br i1 %27, label %28, label %32

28:                                               ; preds = %25
  %29 = load ptr, ptr %17, align 8, !tbaa !56
  %30 = call ptr @PBE2PARAM_it()
  %31 = call ptr @ASN1_item_unpack(ptr noundef %29, ptr noundef %30)
  store ptr %31, ptr %19, align 8, !tbaa !51
  br label %32

32:                                               ; preds = %28, %25
  %33 = load ptr, ptr %19, align 8, !tbaa !51
  %34 = icmp eq ptr %33, null
  br i1 %34, label %35, label %36

35:                                               ; preds = %32
  br label %123

36:                                               ; preds = %32
  %37 = load ptr, ptr %19, align 8, !tbaa !51
  %38 = getelementptr inbounds nuw %struct.PBE2PARAM_st, ptr %37, i32 0, i32 0
  %39 = load ptr, ptr %38, align 8, !tbaa !57
  call void @X509_ALGOR_get0(ptr noundef null, ptr noundef %13, ptr noundef %17, ptr noundef %39)
  %40 = load ptr, ptr %19, align 8, !tbaa !51
  %41 = getelementptr inbounds nuw %struct.PBE2PARAM_st, ptr %40, i32 0, i32 1
  %42 = load ptr, ptr %41, align 8, !tbaa !59
  call void @X509_ALGOR_get0(ptr noundef %16, ptr noundef null, ptr noundef null, ptr noundef %42)
  %43 = load ptr, ptr %16, align 8, !tbaa !55
  %44 = call i32 @OBJ_obj2nid(ptr noundef %43)
  store i32 %44, ptr %14, align 4, !tbaa !19
  %45 = load i32, ptr %13, align 4, !tbaa !19
  %46 = icmp eq i32 %45, 16
  br i1 %46, label %47, label %51

47:                                               ; preds = %36
  %48 = load ptr, ptr %17, align 8, !tbaa !56
  %49 = call ptr @PBKDF2PARAM_it()
  %50 = call ptr @ASN1_item_unpack(ptr noundef %48, ptr noundef %49)
  store ptr %50, ptr %20, align 8, !tbaa !53
  br label %51

51:                                               ; preds = %47, %36
  %52 = load ptr, ptr %20, align 8, !tbaa !53
  %53 = icmp eq ptr %52, null
  br i1 %53, label %54, label %55

54:                                               ; preds = %51
  br label %123

55:                                               ; preds = %51
  %56 = load ptr, ptr %20, align 8, !tbaa !53
  %57 = getelementptr inbounds nuw %struct.PBKDF2PARAM_st, ptr %56, i32 0, i32 0
  %58 = load ptr, ptr %57, align 8, !tbaa !60
  %59 = getelementptr inbounds nuw %struct.asn1_type_st, ptr %58, i32 0, i32 0
  %60 = load i32, ptr %59, align 8, !tbaa !63
  %61 = icmp ne i32 %60, 4
  br i1 %61, label %62, label %63

62:                                               ; preds = %55
  br label %123

63:                                               ; preds = %55
  %64 = load ptr, ptr %20, align 8, !tbaa !53
  %65 = getelementptr inbounds nuw %struct.PBKDF2PARAM_st, ptr %64, i32 0, i32 3
  %66 = load ptr, ptr %65, align 8, !tbaa !65
  %67 = icmp eq ptr %66, null
  br i1 %67, label %68, label %69

68:                                               ; preds = %63
  store i32 163, ptr %15, align 4, !tbaa !19
  br label %75

69:                                               ; preds = %63
  %70 = load ptr, ptr %20, align 8, !tbaa !53
  %71 = getelementptr inbounds nuw %struct.PBKDF2PARAM_st, ptr %70, i32 0, i32 3
  %72 = load ptr, ptr %71, align 8, !tbaa !65
  call void @X509_ALGOR_get0(ptr noundef %16, ptr noundef null, ptr noundef null, ptr noundef %72)
  %73 = load ptr, ptr %16, align 8, !tbaa !55
  %74 = call i32 @OBJ_obj2nid(ptr noundef %73)
  store i32 %74, ptr %15, align 4, !tbaa !19
  br label %75

75:                                               ; preds = %69, %68
  %76 = load ptr, ptr %20, align 8, !tbaa !53
  %77 = getelementptr inbounds nuw %struct.PBKDF2PARAM_st, ptr %76, i32 0, i32 0
  %78 = load ptr, ptr %77, align 8, !tbaa !60
  %79 = getelementptr inbounds nuw %struct.asn1_type_st, ptr %78, i32 0, i32 1
  %80 = load ptr, ptr %79, align 8, !tbaa !29
  %81 = getelementptr inbounds nuw %struct.asn1_string_st, ptr %80, i32 0, i32 0
  %82 = load i32, ptr %81, align 8, !tbaa !66
  %83 = load ptr, ptr %9, align 8, !tbaa !47
  store i32 %82, ptr %83, align 4, !tbaa !19
  %84 = load ptr, ptr %20, align 8, !tbaa !53
  %85 = getelementptr inbounds nuw %struct.PBKDF2PARAM_st, ptr %84, i32 0, i32 1
  %86 = load ptr, ptr %85, align 8, !tbaa !68
  %87 = call i64 @ASN1_INTEGER_get(ptr noundef %86)
  %88 = trunc i64 %87 to i32
  %89 = load ptr, ptr %8, align 8, !tbaa !47
  store i32 %88, ptr %89, align 4, !tbaa !19
  %90 = load i32, ptr %15, align 4, !tbaa !19
  %91 = load ptr, ptr %7, align 8, !tbaa !47
  store i32 %90, ptr %91, align 4, !tbaa !19
  %92 = load i32, ptr %14, align 4, !tbaa !19
  %93 = load ptr, ptr %10, align 8, !tbaa !47
  store i32 %92, ptr %93, align 4, !tbaa !19
  br label %122

94:                                               ; preds = %5
  %95 = call ptr @PBEPARAM_it()
  %96 = load ptr, ptr %6, align 8, !tbaa !46
  %97 = getelementptr inbounds nuw %struct.X509_algor_st, ptr %96, i32 0, i32 1
  %98 = load ptr, ptr %97, align 8, !tbaa !69
  %99 = call ptr @ASN1_TYPE_unpack_sequence(ptr noundef %95, ptr noundef %98)
  store ptr %99, ptr %18, align 8, !tbaa !49
  %100 = load ptr, ptr %18, align 8, !tbaa !49
  %101 = icmp eq ptr %100, null
  br i1 %101, label %102, label %103

102:                                              ; preds = %94
  br label %123

103:                                              ; preds = %94
  %104 = load ptr, ptr %6, align 8, !tbaa !46
  %105 = getelementptr inbounds nuw %struct.X509_algor_st, ptr %104, i32 0, i32 0
  %106 = load ptr, ptr %105, align 8, !tbaa !71
  %107 = call i32 @OBJ_obj2nid(ptr noundef %106)
  %108 = load ptr, ptr %7, align 8, !tbaa !47
  store i32 %107, ptr %108, align 4, !tbaa !19
  %109 = load ptr, ptr %18, align 8, !tbaa !49
  %110 = getelementptr inbounds nuw %struct.PBEPARAM_st, ptr %109, i32 0, i32 1
  %111 = load ptr, ptr %110, align 8, !tbaa !72
  %112 = call i64 @ASN1_INTEGER_get(ptr noundef %111)
  %113 = trunc i64 %112 to i32
  %114 = load ptr, ptr %8, align 8, !tbaa !47
  store i32 %113, ptr %114, align 4, !tbaa !19
  %115 = load ptr, ptr %18, align 8, !tbaa !49
  %116 = getelementptr inbounds nuw %struct.PBEPARAM_st, ptr %115, i32 0, i32 0
  %117 = load ptr, ptr %116, align 8, !tbaa !74
  %118 = getelementptr inbounds nuw %struct.asn1_string_st, ptr %117, i32 0, i32 0
  %119 = load i32, ptr %118, align 8, !tbaa !66
  %120 = load ptr, ptr %9, align 8, !tbaa !47
  store i32 %119, ptr %120, align 4, !tbaa !19
  %121 = load ptr, ptr %10, align 8, !tbaa !47
  store i32 0, ptr %121, align 4, !tbaa !19
  store i32 1, ptr %11, align 4, !tbaa !19
  br label %122

122:                                              ; preds = %103, %75
  store i32 1, ptr %11, align 4, !tbaa !19
  br label %123

123:                                              ; preds = %122, %102, %62, %54, %35
  %124 = load ptr, ptr %20, align 8, !tbaa !53
  %125 = icmp ne ptr %124, null
  br i1 %125, label %126, label %128

126:                                              ; preds = %123
  %127 = load ptr, ptr %20, align 8, !tbaa !53
  call void @PBKDF2PARAM_free(ptr noundef %127)
  br label %128

128:                                              ; preds = %126, %123
  %129 = load ptr, ptr %19, align 8, !tbaa !51
  %130 = icmp ne ptr %129, null
  br i1 %130, label %131, label %133

131:                                              ; preds = %128
  %132 = load ptr, ptr %19, align 8, !tbaa !51
  call void @PBE2PARAM_free(ptr noundef %132)
  br label %133

133:                                              ; preds = %131, %128
  %134 = load ptr, ptr %18, align 8, !tbaa !49
  %135 = icmp ne ptr %134, null
  br i1 %135, label %136, label %138

136:                                              ; preds = %133
  %137 = load ptr, ptr %18, align 8, !tbaa !49
  call void @PBEPARAM_free(ptr noundef %137)
  br label %138

138:                                              ; preds = %136, %133
  %139 = load i32, ptr %11, align 4, !tbaa !19
  call void @llvm.lifetime.end.p0(i64 8, ptr %20) #4
  call void @llvm.lifetime.end.p0(i64 8, ptr %19) #4
  call void @llvm.lifetime.end.p0(i64 8, ptr %18) #4
  call void @llvm.lifetime.end.p0(i64 8, ptr %17) #4
  call void @llvm.lifetime.end.p0(i64 8, ptr %16) #4
  call void @llvm.lifetime.end.p0(i64 4, ptr %15) #4
  call void @llvm.lifetime.end.p0(i64 4, ptr %14) #4
  call void @llvm.lifetime.end.p0(i64 4, ptr %13) #4
  call void @llvm.lifetime.end.p0(i64 4, ptr %12) #4
  call void @llvm.lifetime.end.p0(i64 4, ptr %11) #4
  ret i32 %139
}