; Function Attrs: nounwind uwtable
define internal fastcc range(i32 0, 2) i32 @alg_get(ptr noundef %0, ptr noundef nonnull writeonly captures(none) %1, ptr noundef nonnull writeonly captures(none) %2, ptr noundef nonnull writeonly captures(none) %3, ptr noundef nonnull writeonly captures(none) %4) unnamed_addr #0 {
  %6 = alloca i32, align 4
  %7 = alloca ptr, align 8
  %8 = alloca ptr, align 8
  call void @llvm.lifetime.start.p0(i64 4, ptr nonnull %6) #3
  call void @llvm.lifetime.start.p0(i64 8, ptr nonnull %7) #3
  call void @llvm.lifetime.start.p0(i64 8, ptr nonnull %8) #3
  call void @X509_ALGOR_get0(ptr noundef nonnull %7, ptr noundef nonnull %6, ptr noundef nonnull %8, ptr noundef %0) #3
  %9 = load ptr, ptr %7, align 8, !tbaa !40
  %10 = call i32 @OBJ_obj2nid(ptr noundef %9) #3
  %cond = icmp eq i32 %10, 161
  br i1 %cond, label %11, label %42

11:                                               ; preds = %5
  %12 = load i32, ptr %6, align 4, !tbaa !11
  %13 = icmp eq i32 %12, 16
  br i1 %13, label %14, label %.thread93

14:                                               ; preds = %11
  %15 = load ptr, ptr %8, align 8, !tbaa !41
  %16 = call ptr @PBE2PARAM_it() #3
  %17 = call ptr @ASN1_item_unpack(ptr noundef %15, ptr noundef %16) #3
  %18 = icmp eq ptr %17, null
  br i1 %18, label %.thread93, label %19

19:                                               ; preds = %14
  %20 = load ptr, ptr %17, align 8, !tbaa !42
  call void @X509_ALGOR_get0(ptr noundef null, ptr noundef nonnull %6, ptr noundef nonnull %8, ptr noundef %20) #3
  %21 = getelementptr inbounds nuw i8, ptr %17, i64 8
  %22 = load ptr, ptr %21, align 8, !tbaa !44
  call void @X509_ALGOR_get0(ptr noundef nonnull %7, ptr noundef null, ptr noundef null, ptr noundef %22) #3
  %23 = load ptr, ptr %7, align 8, !tbaa !40
  %24 = call i32 @OBJ_obj2nid(ptr noundef %23) #3
  %25 = load i32, ptr %6, align 4, !tbaa !11
  %26 = icmp eq i32 %25, 16
  br i1 %26, label %27, label %.thread46

27:                                               ; preds = %19
  %28 = load ptr, ptr %8, align 8, !tbaa !41
  %29 = call ptr @PBKDF2PARAM_it() #3
  %30 = call ptr @ASN1_item_unpack(ptr noundef %28, ptr noundef %29) #3
  %31 = icmp eq ptr %30, null
  br i1 %31, label %.thread46, label %32

32:                                               ; preds = %27
  %33 = load ptr, ptr %30, align 8, !tbaa !45
  %34 = load i32, ptr %33, align 8, !tbaa !48
  %.not = icmp eq i32 %34, 4
  br i1 %.not, label %35, label %.thread80

35:                                               ; preds = %32
  %36 = getelementptr inbounds nuw i8, ptr %30, i64 24
  %37 = load ptr, ptr %36, align 8, !tbaa !50
  %38 = icmp eq ptr %37, null
  br i1 %38, label %48, label %39

39:                                               ; preds = %35
  call void @X509_ALGOR_get0(ptr noundef nonnull %7, ptr noundef null, ptr noundef null, ptr noundef nonnull %37) #3
  %40 = load ptr, ptr %7, align 8, !tbaa !40
  %41 = call i32 @OBJ_obj2nid(ptr noundef %40) #3
  %.pre = load ptr, ptr %30, align 8, !tbaa !45
  br label %48

42:                                               ; preds = %5
  %43 = call ptr @PBEPARAM_it() #3
  %44 = getelementptr inbounds nuw i8, ptr %0, i64 8
  %45 = load ptr, ptr %44, align 8, !tbaa !51
  %46 = call ptr @ASN1_TYPE_unpack_sequence(ptr noundef %43, ptr noundef %45) #3
  %47 = icmp eq ptr %46, null
  br i1 %47, label %.thread93, label %57

48:                                               ; preds = %39, %35
  %49 = phi ptr [ %.pre, %39 ], [ %33, %35 ]
  %.037 = phi i32 [ %41, %39 ], [ 163, %35 ]
  %50 = getelementptr inbounds nuw i8, ptr %49, i64 8
  %51 = load ptr, ptr %50, align 8, !tbaa !21
  %52 = load i32, ptr %51, align 8, !tbaa !53
  store i32 %52, ptr %3, align 4, !tbaa !11
  %53 = getelementptr inbounds nuw i8, ptr %30, i64 8
  %54 = load ptr, ptr %53, align 8, !tbaa !55
  %55 = call i64 @ASN1_INTEGER_get(ptr noundef %54) #3
  %56 = trunc i64 %55 to i32
  store i32 %56, ptr %2, align 4, !tbaa !11
  store i32 %.037, ptr %1, align 4, !tbaa !11
  store i32 %24, ptr %4, align 4, !tbaa !11
  br label %.thread80

.thread80:                                        ; preds = %48, %32
  %.03863 = phi i32 [ 1, %48 ], [ 0, %32 ]
  call void @PBKDF2PARAM_free(ptr noundef nonnull %30) #3
  br label %.thread46

.thread46:                                        ; preds = %19, %27, %.thread80
  %.0385487 = phi i32 [ %.03863, %.thread80 ], [ 0, %27 ], [ 0, %19 ]
  call void @PBE2PARAM_free(ptr noundef nonnull %17) #3
  br label %.thread93

57:                                               ; preds = %42
  %58 = load ptr, ptr %0, align 8, !tbaa !56
  %59 = call i32 @OBJ_obj2nid(ptr noundef %58) #3
  store i32 %59, ptr %1, align 4, !tbaa !11
  %60 = getelementptr inbounds nuw i8, ptr %46, i64 8
  %61 = load ptr, ptr %60, align 8, !tbaa !57
  %62 = call i64 @ASN1_INTEGER_get(ptr noundef %61) #3
  %63 = trunc i64 %62 to i32
  store i32 %63, ptr %2, align 4, !tbaa !11
  %64 = load ptr, ptr %46, align 8, !tbaa !59
  %65 = load i32, ptr %64, align 8, !tbaa !53
  store i32 %65, ptr %3, align 4, !tbaa !11
  store i32 0, ptr %4, align 4, !tbaa !11
  call void @PBEPARAM_free(ptr noundef nonnull %46) #3
  br label %.thread93

.thread93:                                        ; preds = %11, %14, %42, %.thread46, %57
  %.038547997 = phi i32 [ 1, %57 ], [ %.0385487, %.thread46 ], [ 0, %42 ], [ 0, %14 ], [ 0, %11 ]
  call void @llvm.lifetime.end.p0(i64 8, ptr nonnull %8) #3
  call void @llvm.lifetime.end.p0(i64 8, ptr nonnull %7) #3
  call void @llvm.lifetime.end.p0(i64 4, ptr nonnull %6) #3
  ret i32 %.038547997
}